; Function Attrs: mustprogress uwtable
define hidden void @_ZN4lean13simp_app_argsERKNS_16elab_environmentERKNS_4exprE(ptr dead_on_unwind noalias writable sret(%"class.lean::expr") align 8 %0, ptr noundef nonnull align 8 dereferenceable(8) %1, ptr noundef nonnull align 8 dereferenceable(8) %2) local_unnamed_addr #0 personality ptr @__gxx_personality_v0 {
  %4 = alloca %"class.lean::expr", align 8
  %5 = alloca %"class.lean::simp_app_args_fn", align 8
  call void @llvm.lifetime.start.p0(i64 576, ptr nonnull %5) #13
  call void @_ZN4lean16simp_app_args_fnC2ERKNS_16elab_environmentE(ptr noundef nonnull align 8 dereferenceable(572) %5, ptr noundef nonnull align 8 dereferenceable(8) %1)
  call void @llvm.lifetime.start.p0(i64 8, ptr nonnull %4)
  invoke void @_ZN4lean16simp_app_args_fn5visitERKNS_4exprE(ptr dead_on_unwind nonnull writable sret(%"class.lean::expr") align 8 %4, ptr noundef nonnull align 8 dereferenceable(572) %5, ptr noundef nonnull align 8 dereferenceable(8) %2)
          to label %.noexc unwind label %23

.noexc:                                           ; preds = %3
  invoke void @_ZN4lean16simp_app_args_fn6mk_letEjNS_4exprE(ptr dead_on_unwind writable sret(%"class.lean::expr") align 8 %0, ptr noundef nonnull align 8 dereferenceable(572) %5, i32 noundef 0, ptr noundef nonnull %4)
          to label %6 unwind label %20

6:                                                ; preds = %.noexc
  %7 = load ptr, ptr %4, align 8, !tbaa !3, !noalias !8
  %8 = ptrtoint ptr %7 to i64
  %9 = and i64 %8, 1
  %.not.i.i.i = icmp eq i64 %9, 0
  br i1 %.not.i.i.i, label %10, label %22

10:                                               ; preds = %6
  %11 = load i32, ptr %7, align 4, !tbaa !11
  %12 = icmp sgt i32 %11, 1
  br i1 %12, label %13, label %15, !prof !14

13:                                               ; preds = %10
  %14 = add nsw i32 %11, -1
  store i32 %14, ptr %7, align 4, !tbaa !11
  br label %22

15:                                               ; preds = %10
  %.not.i.i.i.i = icmp eq i32 %11, 0
  br i1 %.not.i.i.i.i, label %22, label %16

16:                                               ; preds = %15
  invoke void @lean_dec_ref_cold(ptr noundef nonnull %7)
          to label %22 unwind label %17

17:                                               ; preds = %16
  %18 = landingpad { ptr, i32 }
          catch ptr null
  %19 = extractvalue { ptr, i32 } %18, 0
  call void @__clang_call_terminate(ptr %19) #14
  unreachable

20:                                               ; preds = %.noexc
  %21 = landingpad { ptr, i32 }
          cleanup
  call void @_ZN4lean10object_refD2Ev(ptr noundef nonnull align 8 dereferenceable(8) %4) #13
  br label %.body

22:                                               ; preds = %16, %15, %13, %6
  call void @llvm.lifetime.end.p0(i64 8, ptr nonnull %4)
  call void @_ZN4lean16simp_app_args_fnD2Ev(ptr noundef nonnull align 8 dereferenceable(572) %5) #13
  call void @llvm.lifetime.end.p0(i64 576, ptr nonnull %5) #13
  ret void

23:                                               ; preds = %3
  %24 = landingpad { ptr, i32 }
          cleanup
  br label %.body

.body:                                            ; preds = %20, %23
  %eh.lpad-body = phi { ptr, i32 } [ %24, %23 ], [ %21, %20 ]
  call void @_ZN4lean16simp_app_args_fnD2Ev(ptr noundef nonnull align 8 dereferenceable(572) %5) #13
  call void @llvm.lifetime.end.p0(i64 576, ptr nonnull %5) #13
  resume { ptr, i32 } %eh.lpad-body
}